; Function Attrs: nounwind uwtable
define internal void @pwdmodule_free(ptr noundef %0) #0 {
  %2 = tail call ptr @PyModule_GetState(ptr noundef %0) #4
  %3 = load ptr, ptr %2, align 8, !tbaa !10
  %.not.i = icmp eq ptr %3, null
  br i1 %.not.i, label %pwdmodule_clear.exit, label %4

4:                                                ; preds = %1
  store ptr null, ptr %2, align 8, !tbaa !10
  tail call void @_Py_DecRef(ptr noundef nonnull %3) #4
  br label %pwdmodule_clear.exit

pwdmodule_clear.exit:                             ; preds = %1, %4
  ret void
}